ccopy_reg
_reconstructor
p0
(cnltk.classify.decisiontree
DecisionTreeClassifier
p1
c__builtin__
object
p2
Ntp3
Rp4
(dp5
S'_fname'
p6
Vbad
p7
sS'_label'
p8
Vpos
p9
sS'_decisions'
p10
(dp11
I01
g0
(g1
g2
Ntp12
Rp13
(dp14
g6
Vwonderfully
p15
sg8
g9
sg10
(dp16
I01
g0
(g1
g2
Ntp17
Rp18
(dp19
g6
Nsg8
g9
sg10
NsS'_default'
p20
Nsbssg20
g0
(g1
g2
Ntp21
Rp22
(dp23
g6
Vsubtle
p24
sg8
g9
sg10
(dp25
I01
g0
(g1
g2
Ntp26
Rp27
(dp28
g6
Vwasn
p29
sg8
g9
sg10
(dp30
I01
g0
(g1
g2
Ntp31
Rp32
(dp33
g6
Nsg8
Vneg
p34
sg10
Nsg20
Nsbssg20
g0
(g1
g2
Ntp35
Rp36
(dp37
g6
Nsg8
g9
sg10
Nsg20
Nsbsbssg20
g0
(g1
g2
Ntp38
Rp39
(dp40
g6
Vrealistic
p41
sg8
g9
sg10
(dp42
I01
g0
(g1
g2
Ntp43
Rp44
(dp45
g6
Vstupid
p46
sg8
g9
sg10
(dp47
I01
g0
(g1
g2
Ntp48
Rp49
(dp50
g6
Nsg8
g34
sg10
Nsg20
Nsbssg20
g0
(g1
g2
Ntp51
Rp52
(dp53
g6
Nsg8
g9
sg10
Nsg20
Nsbsbssg20
g0
(g1
g2
Ntp54
Rp55
(dp56
g6
Voverall
p57
sg8
g9
sg10
(dp58
I01
g0
(g1
g2
Ntp59
Rp60
(dp61
g6
Vattempts
p62
sg8
g9
sg10
(dp63
I01
g0
(g1
g2
Ntp64
Rp65
(dp66
g6
Nsg8
g34
sg10
Nsg20
Nsbssg20
g0
(g1
g2
Ntp67
Rp68
(dp69
g6
Nsg8
g9
sg10
Nsg20
Nsbsbssg20
g0
(g1
g2
Ntp70
Rp71
(dp72
g6
Vmaintains
p73
sg8
g9
sg10
(dp74
I01
g0
(g1
g2
Ntp75
Rp76
(dp77
g6
Nsg8
g9
sg10
Nsg20
Nsbssg20
g0
(g1
g2
Ntp78
Rp79
(dp80
g6
Nsg8
g34
sg10
Nsg20
Nsbsbsbsbsbsbssg20
g0
(g1
g2
Ntp81
Rp82
(dp83
g6
Vboring
p84
sg8
g9
sg10
(dp85
I01
g0
(g1
g2
Ntp86
Rp87
(dp88
g6
Vincluding
p89
sg8
g9
sg10
(dp90
I01
g0
(g1
g2
Ntp91
Rp92
(dp93
g6
Vso
p94
sg8
g9
sg10
(dp95
I01
g0
(g1
g2
Ntp96
Rp97
(dp98
g6
Nsg8
g9
sg10
Nsg20
Nsbssg20
g0
(g1
g2
Ntp99
Rp100
(dp101
g6
Nsg8
g34
sg10
Nsg20
Nsbsbssg20
g0
(g1
g2
Ntp102
Rp103
(dp104
g6
Nsg8
g34
sg10
Nsg20
Nsbsbssg20
g0
(g1
g2
Ntp105
Rp106
(dp107
g6
Vmess
p108
sg8
g9
sg10
(dp109
I01
g0
(g1
g2
Ntp110
Rp111
(dp112
g6
Vhoward
p113
sg8
g9
sg10
(dp114
I01
g0
(g1
g2
Ntp115
Rp116
(dp117
g6
Nsg8
g9
sg10
Nsg20
Nsbssg20
g0
(g1
g2
Ntp118
Rp119
(dp120
g6
Nsg8
g34
sg10
Nsg20
Nsbsbssg20
g0
(g1
g2
Ntp121
Rp122
(dp123
g6
Vlame
p124
sg8
g9
sg10
(dp125
I01
g0
(g1
g2
Ntp126
Rp127
(dp128
g6
Nsg8
g34
sg10
Nsg20
Nsbssg20
g0
(g1
g2
Ntp129
Rp130
(dp131
g6
Vpoorly
p132
sg8
g9
sg10
(dp133
I01
g0
(g1
g2
Ntp134
Rp135
(dp136
g6
Nsg8
g34
sg10
Nsg20
Nsbssg20
g0
(g1
g2
Ntp137
Rp138
(dp139
g6
Vgrade
p140
sg8
g9
sg10
(dp141
I01
g0
(g1
g2
Ntp142
Rp143
(dp144
g6
Vfeel
p145
sg8
g9
sg10
(dp146
I01
g0
(g1
g2
Ntp147
Rp148
(dp149
g6
Nsg8
g9
sg10
Nsg20
Nsbssg20
g0
(g1
g2
Ntp150
Rp151
(dp152
g6
Nsg8
g34
sg10
Nsg20
Nsbsbssg20
g0
(g1
g2
Ntp153
Rp154
(dp155
g6
Vwasted
p156
sg8
g9
sg10
(dp157
I01
g0
(g1
g2
Ntp158
Rp159
(dp160
g6
Vlooking
p161
sg8
g9
sg10
(dp162
I01
g0
(g1
g2
Ntp163
Rp164
(dp165
g6
Nsg8
g9
sg10
Nsg20
Nsbssg20
g0
(g1
g2
Ntp166
Rp167
(dp168
g6
Nsg8
g34
sg10
Nsg20
Nsbsbssg20
g0
(g1
g2
Ntp169
Rp170
(dp171
g6
Vludicrous
p172
sg8
g9
sg10
(dp173
I01
g0
(g1
g2
Ntp174
Rp175
(dp176
g6
Nsg8
g34
sg10
Nsg20
Nsbssg20
g0
(g1
g2
Ntp177
Rp178
(dp179
g6
Vrandom
p180
sg8
g9
sg10
(dp181
I01
g0
(g1
g2
Ntp182
Rp183
(dp184
g6
Nsg8
g34
sg10
Nsg20
Nsbssg20
g0
(g1
g2
Ntp185
Rp186
(dp187
g6
Vundercover
p188
sg8
g9
sg10
(dp189
I01
g0
(g1
g2
Ntp190
Rp191
(dp192
g6
Nsg8
g34
sg10
Nsg20
Nsbssg20
g0
(g1
g2
Ntp193
Rp194
(dp195
g6
Nsg8
g9
sg10
Nsg20
Nsbsbsbsbsbsbsbsbsbsbsb.